; Function Attrs: mustprogress uwtable
define dso_local noundef zeroext i1 @_ZN4absl5Mutex7TryLockEv(ptr noundef nonnull align 8 dereferenceable(8) %0) local_unnamed_addr #0 align 2 {
  %2 = load atomic i64, ptr %0 monotonic, align 8
  %3 = and i64 %2, 25
  %4 = icmp eq i64 %3, 0
  br i1 %4, label %_ZNSt13__atomic_baseIlE23compare_exchange_strongERllSt12memory_orderS2_.exit, label %8, !prof !19

_ZNSt13__atomic_baseIlE23compare_exchange_strongERllSt12memory_orderS2_.exit: ; preds = %1
  %5 = or disjoint i64 %2, 8
  %6 = cmpxchg ptr %0, i64 %2, i64 %5 acquire monotonic, align 8
  %7 = extractvalue { i64, i1 } %6, 1
  br label %12

8:                                                ; preds = %1
  %9 = and i64 %2, 16
  %.not = icmp eq i64 %9, 0
  br i1 %.not, label %12, label %10, !prof !19

10:                                               ; preds = %8
  %11 = tail call noundef zeroext i1 @_ZN4absl5Mutex11TryLockSlowEv(ptr noundef nonnull align 8 dereferenceable(8) %0)
  br label %12

12:                                               ; preds = %_ZNSt13__atomic_baseIlE23compare_exchange_strongERllSt12memory_orderS2_.exit, %8, %10
  %.0 = phi i1 [ %11, %10 ], [ false, %8 ], [ %7, %_ZNSt13__atomic_baseIlE23compare_exchange_strongERllSt12memory_orderS2_.exit ]
  ret i1 %.0
}